target datalayout = "e-m:e-p270:32:32-p271:32:32-p272:64:64-i64:64-i128:128-f80:128-n8:16:32:64-S128"
target triple = "x86_64-pc-linux-gnu"

%union.anon = type { ptr }
%struct.variable = type { ptr, ptr, i32, ptr }
%struct.ECPGtype = type { i32, ptr, ptr, ptr, %union.anon, i32 }
%struct.ECPGstruct_member = type { ptr, ptr, ptr }

@.str.59 = private unnamed_addr constant [1 x i8] zeroinitializer, align 1
@pacounter = internal global i32 1, align 4
@.str.191 = private unnamed_addr constant [4 x i8] c"$%d\00", align 1
@.str.192 = private unnamed_addr constant [4 x i8] c" , \00", align 1

; Function Attrs: nounwind uwtable
define internal ptr @create_questionmarks(ptr noundef %0, i1 noundef zeroext %1) #0 {
  %3 = alloca ptr, align 8
  %4 = alloca i8, align 1
  %5 = alloca ptr, align 8
  %6 = alloca i32, align 4
  %7 = alloca ptr, align 8
  %8 = alloca ptr, align 8
  %9 = alloca [32 x i8], align 16
  store ptr %0, ptr %3, align 8
  %10 = zext i1 %1 to i8
  store i8 %10, ptr %4, align 1
  call void @llvm.lifetime.start.p0(i64 8, ptr %5) #11
  %11 = load ptr, ptr %3, align 8
  %12 = call ptr @find_variable(ptr noundef %11)
  store ptr %12, ptr %5, align 8
  call void @llvm.lifetime.start.p0(i64 4, ptr %6) #11
  call void @llvm.lifetime.start.p0(i64 8, ptr %7) #11
  store ptr @.str.59, ptr %7, align 8
  %13 = load ptr, ptr %5, align 8
  %14 = getelementptr inbounds nuw %struct.variable, ptr %13, i32 0, i32 1
  %15 = load ptr, ptr %14, align 8
  %16 = getelementptr inbounds nuw %struct.ECPGtype, ptr %15, i32 0, i32 0
  %17 = load i32, ptr %16, align 8
  %18 = icmp eq i32 %17, 22
  br i1 %18, label %38, label %19

19:                                               ; preds = %2
  %20 = load i8, ptr %4, align 1, !range !4, !noundef !5
  %21 = trunc i8 %20 to i1
  br i1 %21, label %22, label %71

22:                                               ; preds = %19
  %23 = load ptr, ptr %5, align 8
  %24 = getelementptr inbounds nuw %struct.variable, ptr %23, i32 0, i32 1
  %25 = load ptr, ptr %24, align 8
  %26 = getelementptr inbounds nuw %struct.ECPGtype, ptr %25, i32 0, i32 0
  %27 = load i32, ptr %26, align 8
  %28 = icmp eq i32 %27, 21
  br i1 %28, label %29, label %71

29:                                               ; preds = %22
  %30 = load ptr, ptr %5, align 8
  %31 = getelementptr inbounds nuw %struct.variable, ptr %30, i32 0, i32 1
  %32 = load ptr, ptr %31, align 8
  %33 = getelementptr inbounds nuw %struct.ECPGtype, ptr %32, i32 0, i32 4
  %34 = load ptr, ptr %33, align 8
  %35 = getelementptr inbounds nuw %struct.ECPGtype, ptr %34, i32 0, i32 0
  %36 = load i32, ptr %35, align 8
  %37 = icmp eq i32 %36, 22
  br i1 %37, label %38, label %71

38:                                               ; preds = %29, %2
  call void @llvm.lifetime.start.p0(i64 8, ptr %8) #11
  %39 = load ptr, ptr %5, align 8
  %40 = getelementptr inbounds nuw %struct.variable, ptr %39, i32 0, i32 1
  %41 = load ptr, ptr %40, align 8
  %42 = getelementptr inbounds nuw %struct.ECPGtype, ptr %41, i32 0, i32 0
  %43 = load i32, ptr %42, align 8
  %44 = icmp eq i32 %43, 22
  br i1 %44, label %45, label %51

45:                                               ; preds = %38
  %46 = load ptr, ptr %5, align 8
  %47 = getelementptr inbounds nuw %struct.variable, ptr %46, i32 0, i32 1
  %48 = load ptr, ptr %47, align 8
  %49 = getelementptr inbounds nuw %struct.ECPGtype, ptr %48, i32 0, i32 4
  %50 = load ptr, ptr %49, align 8
  store ptr %50, ptr %8, align 8
  br label %59

51:                                               ; preds = %38
  %52 = load ptr, ptr %5, align 8
  %53 = getelementptr inbounds nuw %struct.variable, ptr %52, i32 0, i32 1
  %54 = load ptr, ptr %53, align 8
  %55 = getelementptr inbounds nuw %struct.ECPGtype, ptr %54, i32 0, i32 4
  %56 = load ptr, ptr %55, align 8
  %57 = getelementptr inbounds nuw %struct.ECPGtype, ptr %56, i32 0, i32 4
  %58 = load ptr, ptr %57, align 8
  store ptr %58, ptr %8, align 8
  br label %59

59:                                               ; preds = %51, %45
  store i32 0, ptr %6, align 4
  br label %60

60:                                               ; preds = %64, %59
  %61 = load ptr, ptr %8, align 8
  %62 = icmp ne ptr %61, null
  br i1 %62, label %63, label %70

63:                                               ; preds = %60
  br label %64

64:                                               ; preds = %63
  %65 = load ptr, ptr %8, align 8
  %66 = getelementptr inbounds nuw %struct.ECPGstruct_member, ptr %65, i32 0, i32 2
  %67 = load ptr, ptr %66, align 8
  store ptr %67, ptr %8, align 8
  %68 = load i32, ptr %6, align 4
  %69 = add i32 %68, 1
  store i32 %69, ptr %6, align 4
  br label %60, !llvm.loop !25

70:                                               ; preds = %60
  call void @llvm.lifetime.end.p0(i64 8, ptr %8) #11
  br label %72

71:                                               ; preds = %29, %22, %19
  store i32 1, ptr %6, align 4
  br label %72

72:                                               ; preds = %71, %70
  br label %73

73:                                               ; preds = %84, %72
  %74 = load i32, ptr %6, align 4
  %75 = icmp sgt i32 %74, 0
  br i1 %75, label %76, label %87

76:                                               ; preds = %73
  call void @llvm.lifetime.start.p0(i64 32, ptr %9) #11
  %77 = getelementptr inbounds [32 x i8], ptr %9, i64 0, i64 0
  %78 = load i32, ptr @pacounter, align 4
  %79 = add i32 %78, 1
  store i32 %79, ptr @pacounter, align 4
  %80 = call i32 (ptr, i64, ptr, ...) @pg_snprintf(ptr noundef %77, i64 noundef 32, ptr noundef @.str.191, i32 noundef %78)
  %81 = load ptr, ptr %7, align 8
  %82 = getelementptr inbounds [32 x i8], ptr %9, i64 0, i64 0
  %83 = call ptr (i32, ...) @cat_str(i32 noundef 3, ptr noundef %81, ptr noundef %82, ptr noundef @.str.192)
  store ptr %83, ptr %7, align 8
  call void @llvm.lifetime.end.p0(i64 32, ptr %9) #11
  br label %84

84:                                               ; preds = %76
  %85 = load i32, ptr %6, align 4
  %86 = add i32 %85, -1
  store i32 %86, ptr %6, align 4
  br label %73, !llvm.loop !26

87:                                               ; preds = %73
  %88 = load ptr, ptr %7, align 8
  %89 = load ptr, ptr %7, align 8
  %90 = call i64 @strlen(ptr noundef %89) #13
  %91 = sub i64 %90, 3
  %92 = getelementptr inbounds nuw i8, ptr %88, i64 %91
  store i8 0, ptr %92, align 1
  %93 = load ptr, ptr %7, align 8
  call void @llvm.lifetime.end.p0(i64 8, ptr %7) #11
  call void @llvm.lifetime.end.p0(i64 4, ptr %6) #11
  call void @llvm.lifetime.end.p0(i64 8, ptr %5) #11
  ret ptr %93
}