; Function Attrs: nounwind uwtable
define internal fastcc noundef ptr @create_questionmarks(ptr noundef %0) unnamed_addr #0 {
  %2 = alloca [32 x i8], align 16
  %3 = tail call ptr @find_variable(ptr noundef %0) #15
  %4 = getelementptr inbounds nuw i8, ptr %3, i64 8
  %5 = load ptr, ptr %4, align 8
  %6 = load i32, ptr %5, align 8
  %7 = icmp eq i32 %6, 22
  br i1 %7, label %8, label %.lr.ph26.preheader

8:                                                ; preds = %1
  %.0.in = getelementptr inbounds nuw i8, ptr %5, i64 32
  %.120 = load ptr, ptr %.0.in, align 8
  %.not21 = icmp eq ptr %.120, null
  br i1 %.not21, label %._crit_edge, label %.lr.ph

.lr.ph:                                           ; preds = %8, %.lr.ph
  %.123 = phi ptr [ %.1, %.lr.ph ], [ %.120, %8 ]
  %.01722 = phi i32 [ %10, %.lr.ph ], [ 0, %8 ]
  %9 = getelementptr inbounds nuw i8, ptr %.123, i64 16
  %10 = add i32 %.01722, 1
  %.1 = load ptr, ptr %9, align 8
  %.not = icmp eq ptr %.1, null
  br i1 %.not, label %.loopexit, label %.lr.ph, !llvm.loop !25

.loopexit:                                        ; preds = %.lr.ph
  %11 = icmp ult i32 %.01722, 2147483647
  br i1 %11, label %.lr.ph26.preheader, label %._crit_edge

.lr.ph26.preheader:                               ; preds = %1, %.loopexit
  %.224.ph = phi i32 [ %10, %.loopexit ], [ 1, %1 ]
  br label %.lr.ph26

.lr.ph26:                                         ; preds = %.lr.ph26.preheader, %.lr.ph26
  %.01625 = phi ptr [ %15, %.lr.ph26 ], [ @.str.59, %.lr.ph26.preheader ]
  %.224 = phi i32 [ %16, %.lr.ph26 ], [ %.224.ph, %.lr.ph26.preheader ]
  call void @llvm.lifetime.start.p0(i64 32, ptr nonnull %2) #15
  %12 = load i32, ptr @pacounter, align 4
  %13 = add i32 %12, 1
  store i32 %13, ptr @pacounter, align 4
  %14 = call i32 (ptr, i64, ptr, ...) @pg_snprintf(ptr noundef nonnull %2, i64 noundef 32, ptr noundef nonnull @.str.191, i32 noundef %12) #15
  %15 = call ptr (i32, ...) @cat_str(i32 noundef 3, ptr noundef %.01625, ptr noundef nonnull %2, ptr noundef nonnull @.str.192) #15
  call void @llvm.lifetime.end.p0(i64 32, ptr nonnull %2) #15
  %16 = add nsw i32 %.224, -1
  %17 = icmp samesign ugt i32 %.224, 1
  br i1 %17, label %.lr.ph26, label %._crit_edge, !llvm.loop !26

._crit_edge:                                      ; preds = %.lr.ph26, %8, %.loopexit
  %.016.lcssa = phi ptr [ @.str.59, %.loopexit ], [ @.str.59, %8 ], [ %15, %.lr.ph26 ]
  %18 = call i64 @strlen(ptr noundef nonnull dereferenceable(1) %.016.lcssa) #17
  %19 = getelementptr i8, ptr %.016.lcssa, i64 %18
  %20 = getelementptr i8, ptr %19, i64 -3
  store i8 0, ptr %20, align 1
  ret ptr %.016.lcssa
}